target datalayout = "e-m:e-p270:32:32-p271:32:32-p272:64:64-i64:64-i128:128-f80:128-n8:16:32:64-S128"
target triple = "x86_64-pc-linux-gnu"

%struct.bufferevent_pair = type { %struct.bufferevent_private, ptr, ptr }
%struct.bufferevent_private = type { %struct.bufferevent, ptr, i8, i16, i16, i16, i32, i32, %struct.event_callback, i32, i32, ptr, i64, i64, ptr, %union.anon.7, ptr }
%struct.bufferevent = type { ptr, ptr, %struct.event, %struct.event, ptr, ptr, %struct.event_watermark, %struct.event_watermark, ptr, ptr, ptr, ptr, %struct.timeval, %struct.timeval, i16 }
%struct.event = type { %struct.event_callback, %union.anon.0, i32, i16, i16, ptr, %union.anon.2, %struct.timeval }
%union.anon.0 = type { %struct.anon.1 }
%struct.anon.1 = type { ptr, ptr }
%union.anon.2 = type { %struct.anon.3 }
%struct.anon.3 = type { %struct.anon.4, %struct.timeval }
%struct.anon.4 = type { ptr, ptr }
%struct.event_watermark = type { i64, i64 }
%struct.timeval = type { i64, i64 }
%struct.event_callback = type { %struct.anon, i16, i8, i8, %union.anon, ptr }
%struct.anon = type { ptr, ptr }
%union.anon = type { ptr }
%union.anon.7 = type { %struct.sockaddr_in6 }
%struct.sockaddr_in6 = type { i16, i16, i32, %struct.in6_addr, i32 }
%struct.in6_addr = type { %union.anon.8 }
%union.anon.8 = type { [4 x i32] }

; Function Attrs: inlinehint nounwind uwtable
define internal ptr @upcast(ptr noundef %0) #3 {
  %2 = alloca ptr, align 8
  %3 = alloca ptr, align 8
  store ptr %0, ptr %2, align 8
  call void @llvm.lifetime.start.p0(i64 8, ptr %3) #4
  %4 = load ptr, ptr %2, align 8
  %5 = getelementptr inbounds i8, ptr %4, i64 0
  store ptr %5, ptr %3, align 8
  br label %6

6:                                                ; preds = %1
  br label %7

7:                                                ; preds = %6
  br label %8

8:                                                ; preds = %7
  %9 = load ptr, ptr %3, align 8
  call void @llvm.lifetime.end.p0(i64 8, ptr %3) #4
  ret ptr %9
}

; Function Attrs: nounwind uwtable
define internal void @be_pair_destruct(ptr noundef %0) #0 {
  %2 = alloca ptr, align 8
  %3 = alloca ptr, align 8
  store ptr %0, ptr %2, align 8
  call void @llvm.lifetime.start.p0(i64 8, ptr %3) #4
  %4 = load ptr, ptr %2, align 8
  %5 = call ptr @upcast(ptr noundef %4)
  store ptr %5, ptr %3, align 8
  %6 = load ptr, ptr %3, align 8
  %7 = getelementptr inbounds nuw %struct.bufferevent_pair, ptr %6, i32 0, i32 2
  %8 = load ptr, ptr %7, align 8
  %9 = icmp ne ptr %8, null
  br i1 %9, label %10, label %33

10:                                               ; preds = %1
  %11 = load ptr, ptr %3, align 8
  %12 = getelementptr inbounds nuw %struct.bufferevent_pair, ptr %11, i32 0, i32 0
  %13 = getelementptr inbounds nuw %struct.bufferevent_private, ptr %12, i32 0, i32 2
  %14 = load i8, ptr %13, align 8
  %15 = and i8 %14, 1
  %16 = zext i8 %15 to i32
  %17 = icmp ne i32 %16, 0
  br i1 %17, label %18, label %33

18:                                               ; preds = %10
  %19 = load ptr, ptr %3, align 8
  %20 = getelementptr inbounds nuw %struct.bufferevent_pair, ptr %19, i32 0, i32 2
  %21 = load ptr, ptr %20, align 8
  %22 = getelementptr inbounds nuw %struct.bufferevent_pair, ptr %21, i32 0, i32 0
  %23 = getelementptr inbounds nuw %struct.bufferevent_private, ptr %22, i32 0, i32 2
  %24 = load i8, ptr %23, align 8
  %25 = and i8 %24, -2
  %26 = or i8 %25, 1
  store i8 %26, ptr %23, align 8
  %27 = load ptr, ptr %3, align 8
  %28 = getelementptr inbounds nuw %struct.bufferevent_pair, ptr %27, i32 0, i32 0
  %29 = getelementptr inbounds nuw %struct.bufferevent_private, ptr %28, i32 0, i32 2
  %30 = load i8, ptr %29, align 8
  %31 = and i8 %30, -2
  %32 = or i8 %31, 0
  store i8 %32, ptr %29, align 8
  br label %33

33:                                               ; preds = %18, %10, %1
  %34 = load ptr, ptr %3, align 8
  %35 = getelementptr inbounds nuw %struct.bufferevent_pair, ptr %34, i32 0, i32 2
  store ptr null, ptr %35, align 8
  call void @llvm.lifetime.end.p0(i64 8, ptr %3) #4
  ret void
}