; Function Attrs: mustprogress nofree norecurse nosync nounwind willreturn memory(readwrite, inaccessiblemem: none) uwtable
define internal void @be_pair_destruct(ptr noundef captures(none) %0) #3 {
  %2 = getelementptr inbounds nuw i8, ptr %0, i64 528
  %3 = load ptr, ptr %2, align 8
  %.not = icmp eq ptr %3, null
  br i1 %.not, label %14, label %4

4:                                                ; preds = %1
  %5 = getelementptr inbounds nuw i8, ptr %0, i64 384
  %6 = load i8, ptr %5, align 8
  %7 = and i8 %6, 1
  %.not6 = icmp eq i8 %7, 0
  br i1 %.not6, label %14, label %8

8:                                                ; preds = %4
  %9 = getelementptr inbounds nuw i8, ptr %3, i64 384
  %10 = load i8, ptr %9, align 8
  %11 = or i8 %10, 1
  store i8 %11, ptr %9, align 8
  %12 = load i8, ptr %5, align 8
  %13 = and i8 %12, -2
  store i8 %13, ptr %5, align 8
  br label %14

14:                                               ; preds = %8, %4, %1
  store ptr null, ptr %2, align 8
  ret void
}